	.file	"app.c"
	.option nopic
	.option norelax
	.attribute arch, "rv64i2p0_m2p0_a2p0_f2p0_d2p0"
	.attribute unaligned_access, 0
	.attribute stack_align, 16
	.text
.Ltext0:
	.cfi_sections	.debug_frame
	.section	.rodata
	.align	3
.LC0:
	.string	"application start\r\n"
	.text
	.align	2
	.globl	main
	.type	main, @function
main:
.LFB0:
	.file 1 "app.c"
	.loc 1 4 1
	.cfi_startproc
	addi	sp,sp,-16
	.cfi_def_cfa_offset 16
	sd	ra,8(sp)
	sd	s0,0(sp)
	.cfi_offset 1, -8
	.cfi_offset 8, -16
	addi	s0,sp,16
	.cfi_def_cfa 8, 0
	.loc 1 5 3
	lla	a0,.LC0
	call	printf
	.loc 1 9 3
	li	a0,0
	call	exit
	.cfi_endproc
.LFE0:
	.size	main, .-main
	.align	2
	.globl	printf
	.type	printf, @function
printf:
.LFB1:
	.loc 1 12 24
	.cfi_startproc
	addi	sp,sp,-48
	.cfi_def_cfa_offset 48
	sd	ra,40(sp)
	sd	s0,32(sp)
	.cfi_offset 1, -8
	.cfi_offset 8, -16
	addi	s0,sp,48
	.cfi_def_cfa 8, 0
	sd	a0,-40(s0)
	.loc 1 15 10
	sw	zero,-20(s0)
	.loc 1 15 3
	j	.L3
.L4:
	.loc 1 16 13 discriminator 3
	lw	a5,-20(s0)
	ld	a4,-40(s0)
	add	a5,a4,a5
	.loc 1 16 5 discriminator 3
	lbu	a5,0(a5)
	mv	a0,a5
	call	write
	.loc 1 15 23 discriminator 3
	lw	a5,-20(s0)
	addiw	a5,a5,1
	sw	a5,-20(s0)
.L3:
	.loc 1 15 17 discriminator 1
	lw	a5,-20(s0)
	ld	a4,-40(s0)
	add	a5,a4,a5
	lbu	a5,0(a5)
	.loc 1 15 3 discriminator 1
	bne	a5,zero,.L4
	.loc 1 18 1
	nop
	nop
	ld	ra,40(sp)
	.cfi_restore 1
	ld	s0,32(sp)
	.cfi_restore 8
	.cfi_def_cfa 2, 48
	addi	sp,sp,48
	.cfi_def_cfa_offset 0
	jr	ra
	.cfi_endproc
.LFE1:
	.size	printf, .-printf
.Letext0: